; ModuleID = 'source-C-CXX/24/394.cpp'
source_filename = "source-C-CXX/24/394.cpp"
target datalayout = "e-m:e-p270:32:32-p271:32:32-p272:64:64-i64:64-f80:128-n8:16:32:64-S128"
target triple = "x86_64-pc-linux-gnu"

%"class.std::ios_base::Init" = type { i8 }
%"class.std::basic_istream" = type { i32 (...)**, i64, %"class.std::basic_ios" }
%"class.std::basic_ios" = type { %"class.std::ios_base", %"class.std::basic_ostream"*, i8, i8, %"class.std::basic_streambuf"*, %"class.std::ctype"*, %"class.std::num_put"*, %"class.std::num_get"* }
%"class.std::ios_base" = type { i32 (...)**, i64, i64, i32, i32, i32, %"struct.std::ios_base::_Callback_list"*, %"struct.std::ios_base::_Words", [8 x %"struct.std::ios_base::_Words"], i32, %"struct.std::ios_base::_Words"*, %"class.std::locale" }
%"struct.std::ios_base::_Callback_list" = type { %"struct.std::ios_base::_Callback_list"*, void (i32, %"class.std::ios_base"*, i32)*, i32, i32 }
%"struct.std::ios_base::_Words" = type { i8*, i64 }
%"class.std::locale" = type { %"class.std::locale::_Impl"* }
%"class.std::locale::_Impl" = type { i32, %"class.std::locale::facet"**, i64, %"class.std::locale::facet"**, i8** }
%"class.std::locale::facet" = type <{ i32 (...)**, i32, [4 x i8] }>
%"class.std::basic_ostream" = type { i32 (...)**, %"class.std::basic_ios" }
%"class.std::basic_streambuf" = type { i32 (...)**, i8*, i8*, i8*, i8*, i8*, i8*, %"class.std::locale" }
%"class.std::ctype" = type <{ %"class.std::locale::facet.base", [4 x i8], %struct.__locale_struct*, i8, [7 x i8], i32*, i32*, i16*, i8, [256 x i8], [256 x i8], i8, [6 x i8] }>
%"class.std::locale::facet.base" = type <{ i32 (...)**, i32 }>
%struct.__locale_struct = type { [13 x %struct.__locale_data*], i16*, i32*, i32*, [13 x i8*] }
%struct.__locale_data = type opaque
%"class.std::num_put" = type { %"class.std::locale::facet.base", [4 x i8] }
%"class.std::num_get" = type { %"class.std::locale::facet.base", [4 x i8] }

@_ZStL8__ioinit = internal global %"class.std::ios_base::Init" zeroinitializer, align 1
@__dso_handle = external hidden global i8
@result = dso_local global [33 x i8] zeroinitializer, align 16
@_ZSt3cin = external global %"class.std::basic_istream", align 8
@_ZSt4cout = external global %"class.std::basic_ostream", align 8
@llvm.global_ctors = appending global [1 x { i32, void ()*, i8* }] [{ i32, void ()*, i8* } { i32 65535, void ()* @_GLOBAL__sub_I_394.cpp, i8* null }]

declare void @_ZNSt8ios_base4InitC1Ev(%"class.std::ios_base::Init"* nonnull align 1 dereferenceable(1)) unnamed_addr #0

; Function Attrs: nounwind
declare void @_ZNSt8ios_base4InitD1Ev(%"class.std::ios_base::Init"* nonnull align 1 dereferenceable(1)) unnamed_addr #1

; Function Attrs: nofree nounwind
declare i32 @__cxa_atexit(void (i8*)*, i8*, i8*) local_unnamed_addr #2

; Function Attrs: mustprogress nofree nounwind sspstrong uwtable
define dso_local void @_Z8Multiplyv() local_unnamed_addr #3 {
  %1 = tail call i64 @strlen(i8* noundef nonnull dereferenceable(1) getelementptr inbounds ([33 x i8], [33 x i8]* @result, i64 0, i64 0)) #9
  %2 = trunc i64 %1 to i32
  %3 = icmp sgt i32 %2, 0
  br i1 %3, label %4, label %33

4:                                                ; preds = %0
  %5 = add i64 %1, 4294967295
  %6 = and i64 %5, 4294967295
  %7 = and i64 %1, 4294967295
  %8 = add nuw nsw i64 %6, 1
  %9 = getelementptr inbounds [33 x i8], [33 x i8]* @result, i64 0, i64 %8
  br label %10

10:                                               ; preds = %4, %30
  %11 = phi i64 [ 0, %4 ], [ %31, %30 ]
  %12 = phi i32 [ 0, %4 ], [ %22, %30 ]
  %13 = getelementptr inbounds [33 x i8], [33 x i8]* @result, i64 0, i64 %11
  %14 = load i8, i8* %13, align 1, !tbaa !5
  %15 = sext i8 %14 to i32
  %16 = shl nsw i32 %15, 1
  %17 = add nsw i32 %16, -96
  %18 = srem i32 %17, 10
  %19 = add nsw i32 %18, %12
  %20 = trunc i32 %19 to i8
  %21 = add i8 %20, 48
  store i8 %21, i8* %13, align 1, !tbaa !5
  %22 = sdiv i32 %17, 10
  %23 = icmp eq i64 %11, %6
  %24 = add nsw i32 %16, -87
  %25 = icmp ugt i32 %24, 18
  %26 = select i1 %23, i1 %25, i1 false
  br i1 %26, label %27, label %30

27:                                               ; preds = %10
  %28 = trunc i32 %22 to i8
  %29 = add i8 %28, 48
  store i8 %29, i8* %9, align 1, !tbaa !5
  br label %30

30:                                               ; preds = %27, %10
  %31 = add nuw nsw i64 %11, 1
  %32 = icmp eq i64 %31, %7
  br i1 %32, label %33, label %10, !llvm.loop !8

33:                                               ; preds = %30, %0
  ret void
}

; Function Attrs: argmemonly mustprogress nofree nosync nounwind willreturn
declare void @llvm.lifetime.start.p0i8(i64 immarg, i8* nocapture) #4

; Function Attrs: argmemonly mustprogress nofree nounwind readonly willreturn
declare i64 @strlen(i8* nocapture) local_unnamed_addr #5

; Function Attrs: argmemonly mustprogress nofree nosync nounwind willreturn
declare void @llvm.lifetime.end.p0i8(i64 immarg, i8* nocapture) #4

; Function Attrs: mustprogress norecurse sspstrong uwtable
define dso_local i32 @main() local_unnamed_addr #6 {
  %1 = alloca i8, align 1
  %2 = alloca i32, align 4
  %3 = bitcast i32* %2 to i8*
  call void @llvm.lifetime.start.p0i8(i64 4, i8* nonnull %3) #10
  store i8 49, i8* getelementptr inbounds ([33 x i8], [33 x i8]* @result, i64 0, i64 0), align 16, !tbaa !5
  %4 = call nonnull align 8 dereferenceable(16) %"class.std::basic_istream"* @_ZNSirsERi(%"class.std::basic_istream"* nonnull align 8 dereferenceable(16) @_ZSt3cin, i32* nonnull align 4 dereferenceable(4) %2)
  %5 = load i32, i32* %2, align 4, !tbaa !10
  %6 = icmp eq i32 %5, 0
  br i1 %6, label %9, label %7

7:                                                ; preds = %0
  %8 = icmp slt i32 %5, 1
  br i1 %8, label %76, label %39

9:                                                ; preds = %0
  %10 = call i64 @strlen(i8* noundef nonnull dereferenceable(1) getelementptr inbounds ([33 x i8], [33 x i8]* @result, i64 0, i64 0)) #10
  %11 = call nonnull align 8 dereferenceable(8) %"class.std::basic_ostream"* @_ZSt16__ostream_insertIcSt11char_traitsIcEERSt13basic_ostreamIT_T0_ES6_PKS3_l(%"class.std::basic_ostream"* nonnull align 8 dereferenceable(8) @_ZSt4cout, i8* nonnull getelementptr inbounds ([33 x i8], [33 x i8]* @result, i64 0, i64 0), i64 %10)
  %12 = load i8*, i8** bitcast (%"class.std::basic_ostream"* @_ZSt4cout to i8**), align 8, !tbaa !12
  %13 = getelementptr i8, i8* %12, i64 -24
  %14 = bitcast i8* %13 to i64*
  %15 = load i64, i64* %14, align 8
  %16 = add nsw i64 %15, 240
  %17 = getelementptr inbounds i8, i8* bitcast (%"class.std::basic_ostream"* @_ZSt4cout to i8*), i64 %16
  %18 = bitcast i8* %17 to %"class.std::ctype"**
  %19 = load %"class.std::ctype"*, %"class.std::ctype"** %18, align 8, !tbaa !14
  %20 = icmp eq %"class.std::ctype"* %19, null
  br i1 %20, label %21, label %22

21:                                               ; preds = %9
  call void @_ZSt16__throw_bad_castv() #11
  unreachable

22:                                               ; preds = %9
  %23 = getelementptr inbounds %"class.std::ctype", %"class.std::ctype"* %19, i64 0, i32 8
  %24 = load i8, i8* %23, align 8, !tbaa !18
  %25 = icmp eq i8 %24, 0
  br i1 %25, label %29, label %26

26:                                               ; preds = %22
  %27 = getelementptr inbounds %"class.std::ctype", %"class.std::ctype"* %19, i64 0, i32 9, i64 10
  %28 = load i8, i8* %27, align 1, !tbaa !5
  br label %35

29:                                               ; preds = %22
  call void @_ZNKSt5ctypeIcE13_M_widen_initEv(%"class.std::ctype"* nonnull align 8 dereferenceable(570) %19)
  %30 = bitcast %"class.std::ctype"* %19 to i8 (%"class.std::ctype"*, i8)***
  %31 = load i8 (%"class.std::ctype"*, i8)**, i8 (%"class.std::ctype"*, i8)*** %30, align 8, !tbaa !12
  %32 = getelementptr inbounds i8 (%"class.std::ctype"*, i8)*, i8 (%"class.std::ctype"*, i8)** %31, i64 6
  %33 = load i8 (%"class.std::ctype"*, i8)*, i8 (%"class.std::ctype"*, i8)** %32, align 8
  %34 = call signext i8 %33(%"class.std::ctype"* nonnull align 8 dereferenceable(570) %19, i8 signext 10)
  br label %35

35:                                               ; preds = %26, %29
  %36 = phi i8 [ %28, %26 ], [ %34, %29 ]
  %37 = call nonnull align 8 dereferenceable(8) %"class.std::basic_ostream"* @_ZNSo3putEc(%"class.std::basic_ostream"* nonnull align 8 dereferenceable(8) @_ZSt4cout, i8 signext %36)
  %38 = call nonnull align 8 dereferenceable(8) %"class.std::basic_ostream"* @_ZNSo5flushEv(%"class.std::basic_ostream"* nonnull align 8 dereferenceable(8) %37)
  br label %89

39:                                               ; preds = %7, %73
  %40 = phi i32 [ %74, %73 ], [ 1, %7 ]
  %41 = call i64 @strlen(i8* noundef nonnull dereferenceable(1) getelementptr inbounds ([33 x i8], [33 x i8]* @result, i64 0, i64 0)) #9
  %42 = trunc i64 %41 to i32
  %43 = icmp sgt i32 %42, 0
  br i1 %43, label %44, label %73

44:                                               ; preds = %39
  %45 = add i64 %41, 4294967295
  %46 = and i64 %45, 4294967295
  %47 = and i64 %41, 4294967295
  %48 = add nuw nsw i64 %46, 1
  %49 = getelementptr inbounds [33 x i8], [33 x i8]* @result, i64 0, i64 %48
  br label %50

50:                                               ; preds = %70, %44
  %51 = phi i64 [ 0, %44 ], [ %71, %70 ]
  %52 = phi i32 [ 0, %44 ], [ %62, %70 ]
  %53 = getelementptr inbounds [33 x i8], [33 x i8]* @result, i64 0, i64 %51
  %54 = load i8, i8* %53, align 1, !tbaa !5
  %55 = sext i8 %54 to i32
  %56 = shl nsw i32 %55, 1
  %57 = add nsw i32 %56, -96
  %58 = srem i32 %57, 10
  %59 = add nsw i32 %58, %52
  %60 = trunc i32 %59 to i8
  %61 = add i8 %60, 48
  store i8 %61, i8* %53, align 1, !tbaa !5
  %62 = sdiv i32 %57, 10
  %63 = icmp eq i64 %51, %46
  %64 = add nsw i32 %56, -87
  %65 = icmp ugt i32 %64, 18
  %66 = select i1 %63, i1 %65, i1 false
  br i1 %66, label %67, label %70

67:                                               ; preds = %50
  %68 = trunc i32 %62 to i8
  %69 = add i8 %68, 48
  store i8 %69, i8* %49, align 1, !tbaa !5
  br label %70

70:                                               ; preds = %67, %50
  %71 = add nuw nsw i64 %51, 1
  %72 = icmp eq i64 %71, %47
  br i1 %72, label %73, label %50, !llvm.loop !8

73:                                               ; preds = %70, %39
  %74 = add nuw i32 %40, 1
  %75 = icmp eq i32 %40, %5
  br i1 %75, label %76, label %39, !llvm.loop !20

76:                                               ; preds = %73, %7
  %77 = call i64 @strlen(i8* noundef nonnull dereferenceable(1) getelementptr inbounds ([33 x i8], [33 x i8]* @result, i64 0, i64 0)) #9
  %78 = trunc i64 %77 to i32
  %79 = add i32 %78, -1
  %80 = icmp sgt i32 %79, -1
  br i1 %80, label %81, label %89

81:                                               ; preds = %76, %81
  %82 = phi i32 [ %87, %81 ], [ %79, %76 ]
  %83 = zext i32 %82 to i64
  %84 = getelementptr inbounds [33 x i8], [33 x i8]* @result, i64 0, i64 %83
  %85 = load i8, i8* %84, align 1, !tbaa !5
  call void @llvm.lifetime.start.p0i8(i64 1, i8* nonnull %1)
  store i8 %85, i8* %1, align 1, !tbaa !5
  %86 = call nonnull align 8 dereferenceable(8) %"class.std::basic_ostream"* @_ZSt16__ostream_insertIcSt11char_traitsIcEERSt13basic_ostreamIT_T0_ES6_PKS3_l(%"class.std::basic_ostream"* nonnull align 8 dereferenceable(8) @_ZSt4cout, i8* nonnull %1, i64 1)
  call void @llvm.lifetime.end.p0i8(i64 1, i8* nonnull %1)
  %87 = add nsw i32 %82, -1
  %88 = icmp sgt i32 %82, 0
  br i1 %88, label %81, label %89, !llvm.loop !21

89:                                               ; preds = %81, %76, %35
  call void @llvm.lifetime.end.p0i8(i64 4, i8* nonnull %3) #10
  ret i32 0
}

declare nonnull align 8 dereferenceable(16) %"class.std::basic_istream"* @_ZNSirsERi(%"class.std::basic_istream"* nonnull align 8 dereferenceable(16), i32* nonnull align 4 dereferenceable(4)) local_unnamed_addr #0

declare nonnull align 8 dereferenceable(8) %"class.std::basic_ostream"* @_ZSt16__ostream_insertIcSt11char_traitsIcEERSt13basic_ostreamIT_T0_ES6_PKS3_l(%"class.std::basic_ostream"* nonnull align 8 dereferenceable(8), i8*, i64) local_unnamed_addr #0

declare nonnull align 8 dereferenceable(8) %"class.std::basic_ostream"* @_ZNSo3putEc(%"class.std::basic_ostream"* nonnull align 8 dereferenceable(8), i8 signext) local_unnamed_addr #0

declare nonnull align 8 dereferenceable(8) %"class.std::basic_ostream"* @_ZNSo5flushEv(%"class.std::basic_ostream"* nonnull align 8 dereferenceable(8)) local_unnamed_addr #0

; Function Attrs: noreturn
declare void @_ZSt16__throw_bad_castv() local_unnamed_addr #7

declare void @_ZNKSt5ctypeIcE13_M_widen_initEv(%"class.std::ctype"* nonnull align 8 dereferenceable(570)) local_unnamed_addr #0

; Function Attrs: sspstrong uwtable
define internal void @_GLOBAL__sub_I_394.cpp() #8 section ".text.startup" {
  tail call void @_ZNSt8ios_base4InitC1Ev(%"class.std::ios_base::Init"* nonnull align 1 dereferenceable(1) @_ZStL8__ioinit)
  %1 = tail call i32 @__cxa_atexit(void (i8*)* bitcast (void (%"class.std::ios_base::Init"*)* @_ZNSt8ios_base4InitD1Ev to void (i8*)*), i8* getelementptr inbounds (%"class.std::ios_base::Init", %"class.std::ios_base::Init"* @_ZStL8__ioinit, i64 0, i32 0), i8* nonnull @__dso_handle) #10
  ret void
}


!llvm.module.flags = !{!0, !1, !2, !3}
!llvm.ident = !{!4}

!0 = !{i32 1, !"wchar_size", i32 4}
!1 = !{i32 7, !"PIC Level", i32 2}
!2 = !{i32 7, !"PIE Level", i32 2}
!3 = !{i32 7, !"uwtable", i32 1}
!4 = !{!"clang version 13.0.0"}
!5 = !{!6, !6, i64 0}
!6 = !{!"omnipotent char", !7, i64 0}
!7 = !{!"Simple C++ TBAA"}
!8 = distinct !{!8, !9}
!9 = !{!"llvm.loop.mustprogress"}
!10 = !{!11, !11, i64 0}
!11 = !{!"int", !6, i64 0}
!12 = !{!13, !13, i64 0}
!13 = !{!"vtable pointer", !7, i64 0}
!14 = !{!15, !16, i64 240}
!15 = !{!"_ZTSSt9basic_iosIcSt11char_traitsIcEE", !16, i64 216, !6, i64 224, !17, i64 225, !16, i64 232, !16, i64 240, !16, i64 248, !16, i64 256}
!16 = !{!"any pointer", !6, i64 0}
!17 = !{!"bool", !6, i64 0}
!18 = !{!19, !6, i64 56}
!19 = !{!"_ZTSSt5ctypeIcE", !16, i64 16, !17, i64 24, !16, i64 32, !16, i64 40, !16, i64 48, !6, i64 56, !6, i64 57, !6, i64 313, !6, i64 569}
!20 = distinct !{!20, !9}
!21 = distinct !{!21, !9}
